; ModuleID = '10/1878.c'
source_filename = "10/1878.c"
target datalayout = "e-m:e-p270:32:32-p271:32:32-p272:64:64-i64:64-f80:128-n8:16:32:64-S128"
target triple = "x86_64-pc-linux-gnu"

@maxsize = dso_local constant i32 26, align 4
@.str = private unnamed_addr constant [3 x i8] c"%d\00", align 1
@.str.1 = private unnamed_addr constant [4 x i8] c"%d\0A\00", align 1

; Function Attrs: noinline nounwind uwtable
define dso_local i32 @maxnum(i32* %0, i32 %1) #0 {
  %3 = alloca i32*, align 8
  %4 = alloca i32, align 4
  %5 = alloca i32, align 4
  %6 = alloca i32, align 4
  %7 = alloca i32, align 4
  %8 = alloca i32, align 4
  %9 = alloca [26 x i32], align 16
  store i32* %0, i32** %3, align 8
  store i32 %1, i32* %4, align 4
  store i32 1, i32* %5, align 4
  %10 = getelementptr inbounds [26 x i32], [26 x i32]* %9, i64 0, i64 0
  store i32 1, i32* %10, align 16
  store i32 1, i32* %6, align 4
  br label %11

11:                                               ; preds = %67, %2
  %12 = load i32, i32* %6, align 4
  %13 = load i32, i32* %4, align 4
  %14 = icmp slt i32 %12, %13
  br i1 %14, label %15, label %70

15:                                               ; preds = %11
  store i32 0, i32* %8, align 4
  store i32 0, i32* %7, align 4
  br label %16

16:                                               ; preds = %46, %15
  %17 = load i32, i32* %7, align 4
  %18 = load i32, i32* %6, align 4
  %19 = icmp slt i32 %17, %18
  br i1 %19, label %20, label %49

20:                                               ; preds = %16
  %21 = load i32*, i32** %3, align 8
  %22 = load i32, i32* %7, align 4
  %23 = sext i32 %22 to i64
  %24 = getelementptr inbounds i32, i32* %21, i64 %23
  %25 = load i32, i32* %24, align 4
  %26 = load i32*, i32** %3, align 8
  %27 = load i32, i32* %6, align 4
  %28 = sext i32 %27 to i64
  %29 = getelementptr inbounds i32, i32* %26, i64 %28
  %30 = load i32, i32* %29, align 4
  %31 = icmp sge i32 %25, %30
  br i1 %31, label %32, label %45

32:                                               ; preds = %20
  %33 = load i32, i32* %7, align 4
  %34 = sext i32 %33 to i64
  %35 = getelementptr inbounds [26 x i32], [26 x i32]* %9, i64 0, i64 %34
  %36 = load i32, i32* %35, align 4
  %37 = load i32, i32* %8, align 4
  %38 = icmp sgt i32 %36, %37
  br i1 %38, label %39, label %44

39:                                               ; preds = %32
  %40 = load i32, i32* %7, align 4
  %41 = sext i32 %40 to i64
  %42 = getelementptr inbounds [26 x i32], [26 x i32]* %9, i64 0, i64 %41
  %43 = load i32, i32* %42, align 4
  store i32 %43, i32* %8, align 4
  br label %44

44:                                               ; preds = %39, %32
  br label %45

45:                                               ; preds = %44, %20
  br label %46

46:                                               ; preds = %45
  %47 = load i32, i32* %7, align 4
  %48 = add nsw i32 %47, 1
  store i32 %48, i32* %7, align 4
  br label %16

49:                                               ; preds = %16
  %50 = load i32, i32* %8, align 4
  %51 = add nsw i32 %50, 1
  %52 = load i32, i32* %6, align 4
  %53 = sext i32 %52 to i64
  %54 = getelementptr inbounds [26 x i32], [26 x i32]* %9, i64 0, i64 %53
  store i32 %51, i32* %54, align 4
  %55 = load i32, i32* %5, align 4
  %56 = load i32, i32* %6, align 4
  %57 = sext i32 %56 to i64
  %58 = getelementptr inbounds [26 x i32], [26 x i32]* %9, i64 0, i64 %57
  %59 = load i32, i32* %58, align 4
  %60 = icmp slt i32 %55, %59
  br i1 %60, label %61, label %66

61:                                               ; preds = %49
  %62 = load i32, i32* %6, align 4
  %63 = sext i32 %62 to i64
  %64 = getelementptr inbounds [26 x i32], [26 x i32]* %9, i64 0, i64 %63
  %65 = load i32, i32* %64, align 4
  store i32 %65, i32* %5, align 4
  br label %66

66:                                               ; preds = %61, %49
  br label %67

67:                                               ; preds = %66
  %68 = load i32, i32* %6, align 4
  %69 = add nsw i32 %68, 1
  store i32 %69, i32* %6, align 4
  br label %11

70:                                               ; preds = %11
  %71 = load i32, i32* %5, align 4
  ret i32 %71
}

; Function Attrs: noinline nounwind uwtable
define dso_local i32 @main() #0 {
  %1 = alloca i32, align 4
  %2 = alloca i32, align 4
  %3 = alloca i32, align 4
  %4 = alloca [26 x i32], align 16
  store i32 0, i32* %1, align 4
  %5 = call i32 (i8*, ...) @__isoc99_scanf(i8* getelementptr inbounds ([3 x i8], [3 x i8]* @.str, i64 0, i64 0), i32* %3)
  store i32 0, i32* %2, align 4
  br label %6

6:                                                ; preds = %16, %0
  %7 = load i32, i32* %2, align 4
  %8 = load i32, i32* %3, align 4
  %9 = icmp slt i32 %7, %8
  br i1 %9, label %10, label %19

10:                                               ; preds = %6
  %11 = getelementptr inbounds [26 x i32], [26 x i32]* %4, i64 0, i64 0
  %12 = load i32, i32* %2, align 4
  %13 = sext i32 %12 to i64
  %14 = getelementptr inbounds i32, i32* %11, i64 %13
  %15 = call i32 (i8*, ...) @__isoc99_scanf(i8* getelementptr inbounds ([3 x i8], [3 x i8]* @.str, i64 0, i64 0), i32* %14)
  br label %16

16:                                               ; preds = %10
  %17 = load i32, i32* %2, align 4
  %18 = add nsw i32 %17, 1
  store i32 %18, i32* %2, align 4
  br label %6

19:                                               ; preds = %6
  %20 = getelementptr inbounds [26 x i32], [26 x i32]* %4, i64 0, i64 0
  %21 = load i32, i32* %3, align 4
  %22 = call i32 @maxnum(i32* %20, i32 %21)
  %23 = call i32 (i8*, ...) @printf(i8* getelementptr inbounds ([4 x i8], [4 x i8]* @.str.1, i64 0, i64 0), i32 %22)
  ret i32 0
}

declare dso_local i32 @__isoc99_scanf(i8*, ...) #1

declare dso_local i32 @printf(i8*, ...) #1


!llvm.module.flags = !{!0}
!llvm.ident = !{!1}

!0 = !{i32 1, !"wchar_size", i32 4}
!1 = !{!"clang version 10.0.0-4ubuntu1 "}
